; Function Attrs: mustprogress uwtable
define void @_ZN6casadi14OracleFunction6expandEv(ptr noundef nonnull align 8 dereferenceable(1528) %0) local_unnamed_addr #3 align 2 personality ptr @__gxx_personality_v0 {
  %2 = alloca %"class.casadi::Function", align 8
  call void @llvm.lifetime.start.p0(i64 8, ptr nonnull %2) #29
  %3 = getelementptr inbounds nuw i8, ptr %0, i64 1312
  call void @_ZNK6casadi8Function6expandEv(ptr dead_on_unwind nonnull writable sret(%"class.casadi::Function") align 8 %2, ptr noundef nonnull align 8 dereferenceable(8) %3)
  %4 = invoke noundef nonnull align 8 dereferenceable(8) ptr @_ZN6casadi13GenericSharedINS_12SharedObjectENS_20SharedObjectInternalEEaSERKS3_(ptr noundef nonnull align 8 dereferenceable(8) %3, ptr noundef nonnull align 8 dereferenceable(8) %2)
          to label %_ZN6casadi8FunctionaSERKS0_.exit unwind label %5

_ZN6casadi8FunctionaSERKS0_.exit:                 ; preds = %1
  call void @_ZN6casadi8FunctionD1Ev(ptr noundef nonnull align 8 dereferenceable(8) %2) #29
  call void @llvm.lifetime.end.p0(i64 8, ptr nonnull %2) #29
  ret void

5:                                                ; preds = %1
  %6 = landingpad { ptr, i32 }
          cleanup
  call void @_ZN6casadi8FunctionD1Ev(ptr noundef nonnull align 8 dereferenceable(8) %2) #29
  call void @llvm.lifetime.end.p0(i64 8, ptr nonnull %2) #29
  resume { ptr, i32 } %6
}